; Function Attrs: mustprogress nounwind uwtable
define dso_local noundef zeroext i1 @_ZN4llvm7TGLexer28prepEatPreprocessorDirectiveENS_5tgtok7TokKindE(ptr nocapture noundef nonnull align 8 dereferenceable(192) %0, i32 noundef %1) local_unnamed_addr #0 align 2 {
  %3 = alloca %"class.llvm::Twine", align 8
  %4 = getelementptr inbounds nuw i8, ptr %0, i64 8
  %5 = load ptr, ptr %4, align 8
  %6 = getelementptr inbounds nuw i8, ptr %0, i64 32
  store ptr %5, ptr %6, align 8
  br label %7

7:                                                ; preds = %2, %11
  %.0.idx6 = phi i64 [ 0, %2 ], [ %.0.add, %11 ]
  %.0.ptr = getelementptr inbounds i8, ptr @_ZL16PreprocessorDirs, i64 %.0.idx6
  %.sroa.0.0.copyload = load i32, ptr %.0.ptr, align 8
  %8 = icmp eq i32 %.sroa.0.0.copyload, %1
  br i1 %8, label %9, label %11

9:                                                ; preds = %7
  %.0.ptr.le = getelementptr inbounds i8, ptr @_ZL16PreprocessorDirs, i64 %.0.idx6
  %.sroa.25.0..0.ptr.sroa_idx = getelementptr inbounds i8, ptr %.0.ptr.le, i64 16
  %.sroa.25.0.copyload = load i64, ptr %.sroa.25.0..0.ptr.sroa_idx, align 8
  %10 = getelementptr inbounds i8, ptr %5, i64 %.sroa.25.0.copyload
  store ptr %10, ptr %4, align 8
  ret i1 true

11:                                               ; preds = %7
  %.0.add = add nuw nsw i64 %.0.idx6, 24
  %.not = icmp eq i64 %.0.add, 120
  br i1 %.not, label %12, label %7

12:                                               ; preds = %11
  %13 = getelementptr inbounds nuw i8, ptr %3, i64 32
  %14 = getelementptr inbounds nuw i8, ptr %3, i64 33
  store i8 1, ptr %14, align 1
  store ptr @.str.99, ptr %3, align 8
  store i8 3, ptr %13, align 8
  call void @_ZN4llvm15PrintFatalErrorERKNS_5TwineE(ptr noundef nonnull align 8 dereferenceable(34) %3) #22
  unreachable
}